target datalayout = "e-m:e-p270:32:32-p271:32:32-p272:64:64-i64:64-i128:128-f80:128-n8:16:32:64-S128"
target triple = "x86_64-pc-linux-gnu"

@hf_awdl_electionparams2_master = internal global i32 0, align 4
@hf_awdl_electionparams2_other = internal global i32 0, align 4
@hf_awdl_electionparams2_mastermetric = internal global i32 0, align 4
@hf_awdl_electionparams2_selfmetric = internal global i32 0, align 4
@hf_awdl_electionparams2_mastercounter = internal global i32 0, align 4
@hf_awdl_electionparams2_selfcounter = internal global i32 0, align 4
@hf_awdl_electionparams2_distance = internal global i32 0, align 4
@hf_awdl_electionparams2_reserved = internal global i32 0, align 4
@hf_awdl_electionparams2_unknown = internal global i32 0, align 4

; Function Attrs: null_pointer_is_valid sspstrong uwtable
define internal i32 @awdl_tag_election_params_v2(ptr noundef %0, ptr noundef %1, ptr noundef %2, ptr noundef %3) #0 {
  %5 = alloca ptr, align 8
  %6 = alloca ptr, align 8
  %7 = alloca ptr, align 8
  %8 = alloca ptr, align 8
  %9 = alloca i32, align 4
  store ptr %0, ptr %5, align 8
  store ptr %1, ptr %6, align 8
  store ptr %2, ptr %7, align 8
  store ptr %3, ptr %8, align 8
  call void @llvm.lifetime.start.p0(i64 4, ptr %9) #6
  store i32 0, ptr %9, align 4
  %10 = load ptr, ptr %7, align 8
  %11 = load i32, ptr @hf_awdl_electionparams2_master, align 4
  %12 = load ptr, ptr %5, align 8
  %13 = load i32, ptr %9, align 4
  %14 = call ptr @proto_tree_add_item(ptr noundef %10, i32 noundef %11, ptr noundef %12, i32 noundef %13, i32 noundef 6, i32 noundef 0)
  %15 = load i32, ptr %9, align 4
  %16 = add i32 %15, 6
  store i32 %16, ptr %9, align 4
  %17 = load ptr, ptr %7, align 8
  %18 = load i32, ptr @hf_awdl_electionparams2_other, align 4
  %19 = load ptr, ptr %5, align 8
  %20 = load i32, ptr %9, align 4
  %21 = call ptr @proto_tree_add_item(ptr noundef %17, i32 noundef %18, ptr noundef %19, i32 noundef %20, i32 noundef 6, i32 noundef 0)
  %22 = load i32, ptr %9, align 4
  %23 = add i32 %22, 6
  store i32 %23, ptr %9, align 4
  %24 = load ptr, ptr %7, align 8
  %25 = load i32, ptr @hf_awdl_electionparams2_mastercounter, align 4
  %26 = load ptr, ptr %5, align 8
  %27 = load i32, ptr %9, align 4
  %28 = call ptr @proto_tree_add_item(ptr noundef %24, i32 noundef %25, ptr noundef %26, i32 noundef %27, i32 noundef 4, i32 noundef -2147483648)
  %29 = load i32, ptr %9, align 4
  %30 = add i32 %29, 4
  store i32 %30, ptr %9, align 4
  %31 = load ptr, ptr %7, align 8
  %32 = load i32, ptr @hf_awdl_electionparams2_distance, align 4
  %33 = load ptr, ptr %5, align 8
  %34 = load i32, ptr %9, align 4
  %35 = call ptr @proto_tree_add_item(ptr noundef %31, i32 noundef %32, ptr noundef %33, i32 noundef %34, i32 noundef 4, i32 noundef -2147483648)
  %36 = load i32, ptr %9, align 4
  %37 = add i32 %36, 4
  store i32 %37, ptr %9, align 4
  %38 = load ptr, ptr %7, align 8
  %39 = load i32, ptr @hf_awdl_electionparams2_mastermetric, align 4
  %40 = load ptr, ptr %5, align 8
  %41 = load i32, ptr %9, align 4
  %42 = call ptr @proto_tree_add_item(ptr noundef %38, i32 noundef %39, ptr noundef %40, i32 noundef %41, i32 noundef 4, i32 noundef -2147483648)
  %43 = load i32, ptr %9, align 4
  %44 = add i32 %43, 4
  store i32 %44, ptr %9, align 4
  %45 = load ptr, ptr %7, align 8
  %46 = load i32, ptr @hf_awdl_electionparams2_selfmetric, align 4
  %47 = load ptr, ptr %5, align 8
  %48 = load i32, ptr %9, align 4
  %49 = call ptr @proto_tree_add_item(ptr noundef %45, i32 noundef %46, ptr noundef %47, i32 noundef %48, i32 noundef 4, i32 noundef -2147483648)
  %50 = load i32, ptr %9, align 4
  %51 = add i32 %50, 4
  store i32 %51, ptr %9, align 4
  %52 = load ptr, ptr %7, align 8
  %53 = load i32, ptr @hf_awdl_electionparams2_unknown, align 4
  %54 = load ptr, ptr %5, align 8
  %55 = load i32, ptr %9, align 4
  %56 = call ptr @proto_tree_add_item(ptr noundef %52, i32 noundef %53, ptr noundef %54, i32 noundef %55, i32 noundef 4, i32 noundef -2147483648)
  %57 = load i32, ptr %9, align 4
  %58 = add i32 %57, 4
  store i32 %58, ptr %9, align 4
  %59 = load ptr, ptr %7, align 8
  %60 = load i32, ptr @hf_awdl_electionparams2_reserved, align 4
  %61 = load ptr, ptr %5, align 8
  %62 = load i32, ptr %9, align 4
  %63 = call ptr @proto_tree_add_item(ptr noundef %59, i32 noundef %60, ptr noundef %61, i32 noundef %62, i32 noundef 4, i32 noundef -2147483648)
  %64 = load i32, ptr %9, align 4
  %65 = add i32 %64, 4
  store i32 %65, ptr %9, align 4
  %66 = load ptr, ptr %7, align 8
  %67 = load i32, ptr @hf_awdl_electionparams2_selfcounter, align 4
  %68 = load ptr, ptr %5, align 8
  %69 = load i32, ptr %9, align 4
  %70 = call ptr @proto_tree_add_item(ptr noundef %66, i32 noundef %67, ptr noundef %68, i32 noundef %69, i32 noundef 4, i32 noundef -2147483648)
  %71 = load i32, ptr %9, align 4
  %72 = add i32 %71, 4
  store i32 %72, ptr %9, align 4
  %73 = load i32, ptr %9, align 4
  call void @llvm.lifetime.end.p0(i64 4, ptr %9) #6
  ret i32 %73
}