; Function Attrs: null_pointer_is_valid sspstrong uwtable
define internal noundef i32 @awdl_tag_election_params_v2(ptr noundef %0, ptr readnone captures(none) %1, ptr noundef %2, ptr readnone captures(none) %3) #0 {
  %5 = load i32, ptr @hf_awdl_electionparams2_master, align 4
  %6 = tail call ptr @proto_tree_add_item(ptr noundef %2, i32 noundef %5, ptr noundef %0, i32 noundef 0, i32 noundef 6, i32 noundef 0)
  %7 = load i32, ptr @hf_awdl_electionparams2_other, align 4
  %8 = tail call ptr @proto_tree_add_item(ptr noundef %2, i32 noundef %7, ptr noundef %0, i32 noundef 6, i32 noundef 6, i32 noundef 0)
  %9 = load i32, ptr @hf_awdl_electionparams2_mastercounter, align 4
  %10 = tail call ptr @proto_tree_add_item(ptr noundef %2, i32 noundef %9, ptr noundef %0, i32 noundef 12, i32 noundef 4, i32 noundef -2147483648)
  %11 = load i32, ptr @hf_awdl_electionparams2_distance, align 4
  %12 = tail call ptr @proto_tree_add_item(ptr noundef %2, i32 noundef %11, ptr noundef %0, i32 noundef 16, i32 noundef 4, i32 noundef -2147483648)
  %13 = load i32, ptr @hf_awdl_electionparams2_mastermetric, align 4
  %14 = tail call ptr @proto_tree_add_item(ptr noundef %2, i32 noundef %13, ptr noundef %0, i32 noundef 20, i32 noundef 4, i32 noundef -2147483648)
  %15 = load i32, ptr @hf_awdl_electionparams2_selfmetric, align 4
  %16 = tail call ptr @proto_tree_add_item(ptr noundef %2, i32 noundef %15, ptr noundef %0, i32 noundef 24, i32 noundef 4, i32 noundef -2147483648)
  %17 = load i32, ptr @hf_awdl_electionparams2_unknown, align 4
  %18 = tail call ptr @proto_tree_add_item(ptr noundef %2, i32 noundef %17, ptr noundef %0, i32 noundef 28, i32 noundef 4, i32 noundef -2147483648)
  %19 = load i32, ptr @hf_awdl_electionparams2_reserved, align 4
  %20 = tail call ptr @proto_tree_add_item(ptr noundef %2, i32 noundef %19, ptr noundef %0, i32 noundef 32, i32 noundef 4, i32 noundef -2147483648)
  %21 = load i32, ptr @hf_awdl_electionparams2_selfcounter, align 4
  %22 = tail call ptr @proto_tree_add_item(ptr noundef %2, i32 noundef %21, ptr noundef %0, i32 noundef 36, i32 noundef 4, i32 noundef -2147483648)
  ret i32 40
}